; Function Attrs: mustprogress uwtable
define hidden noundef ptr @_Z12using_paramsP6tacticRK10params_ref(ptr noundef %t, ptr noundef nonnull align 8 dereferenceable(8) %p) local_unnamed_addr #3 personality ptr @__gxx_personality_v0 {
entry:
  %call = tail call noalias noundef ptr @_ZN6memory8allocateEm(i64 noundef 32)
  %m_ref_count.i.i.i = getelementptr inbounds i8, ptr %call, i64 8
  store i32 0, ptr %m_ref_count.i.i.i, align 8
  store ptr getelementptr inbounds ({ [25 x ptr] }, ptr @_ZTV14unary_tactical, i64 0, i32 0, i64 2), ptr %call, align 8
  %m_t.i.i = getelementptr inbounds i8, ptr %call, i64 16
  store ptr %t, ptr %m_t.i.i, align 8
  %tobool.not.i.i.i.i = icmp eq ptr %t, null
  br i1 %tobool.not.i.i.i.i, label %_ZN14unary_tacticalC2EP6tactic.exit.i, label %if.then.i.i.i.i

if.then.i.i.i.i:                                  ; preds = %entry
  %m_ref_count.i.i.i.i.i = getelementptr inbounds i8, ptr %t, i64 8
  %0 = load i32, ptr %m_ref_count.i.i.i.i.i, align 8
  %inc.i.i.i.i.i = add i32 %0, 1
  store i32 %inc.i.i.i.i.i, ptr %m_ref_count.i.i.i.i.i, align 8
  br label %_ZN14unary_tacticalC2EP6tactic.exit.i

_ZN14unary_tacticalC2EP6tactic.exit.i:            ; preds = %if.then.i.i.i.i, %entry
  store ptr getelementptr inbounds ({ [25 x ptr] }, ptr @_ZTV21using_params_tactical, i64 0, i32 0, i64 2), ptr %call, align 8
  %m_params.i = getelementptr inbounds i8, ptr %call, i64 24
  invoke void @_ZN10params_refC1ERKS_(ptr noundef nonnull align 8 dereferenceable(8) %m_params.i, ptr noundef nonnull align 8 dereferenceable(8) %p)
          to label %invoke.cont.i unwind label %lpad.i

invoke.cont.i:                                    ; preds = %_ZN14unary_tacticalC2EP6tactic.exit.i
  %vtable.i = load ptr, ptr %t, align 8
  %vfn.i = getelementptr inbounds i8, ptr %vtable.i, i64 96
  %1 = load ptr, ptr %vfn.i, align 8
  invoke void %1(ptr noundef nonnull align 8 dereferenceable(12) %t, ptr noundef nonnull align 8 dereferenceable(8) %p)
          to label %_ZN21using_params_tacticalC2EP6tacticRK10params_ref.exit unwind label %lpad2.i

lpad.i:                                           ; preds = %_ZN14unary_tacticalC2EP6tactic.exit.i
  %2 = landingpad { ptr, i32 }
          cleanup
  br label %ehcleanup.i

lpad2.i:                                          ; preds = %invoke.cont.i
  %3 = landingpad { ptr, i32 }
          cleanup
  tail call void @_ZN10params_refD1Ev(ptr noundef nonnull align 8 dereferenceable(8) %m_params.i) #16
  br label %ehcleanup.i

ehcleanup.i:                                      ; preds = %lpad2.i, %lpad.i
  %.pn.i = phi { ptr, i32 } [ %3, %lpad2.i ], [ %2, %lpad.i ]
  tail call void @_ZN14unary_tacticalD2Ev(ptr noundef nonnull align 8 dereferenceable(24) %call) #16
  resume { ptr, i32 } %.pn.i

_ZN21using_params_tacticalC2EP6tacticRK10params_ref.exit: ; preds = %invoke.cont.i
  ret ptr %call
}